target datalayout = "e-m:e-p270:32:32-p271:32:32-p272:64:64-i64:64-i128:128-f80:128-n8:16:32:64-S128"
target triple = "x86_64-pc-linux-gnu"

%struct.asn1_string_st = type { i32, i32, ptr, i64 }
%struct.pkcs7_recip_info_st = type { ptr, ptr, ptr, ptr, ptr, ptr }

@.str = private unnamed_addr constant [35 x i8] c"../openssl/crypto/pkcs7/pk7_doit.c\00", align 1
@.str.1 = private unnamed_addr constant [4 x i8] c"RSA\00", align 1
@.str.2 = private unnamed_addr constant [29 x i8] c"rsa_pkcs1_implicit_rejection\00", align 1
@.str.3 = private unnamed_addr constant [2 x i8] c"0\00", align 1

; Function Attrs: nounwind uwtable
define internal i32 @pkcs7_decrypt_rinfo(ptr noundef %0, ptr noundef %1, ptr noundef %2, ptr noundef %3, i64 noundef %4) #0 {
  %6 = alloca i32, align 4
  %7 = alloca ptr, align 8
  %8 = alloca ptr, align 8
  %9 = alloca ptr, align 8
  %10 = alloca ptr, align 8
  %11 = alloca i64, align 8
  %12 = alloca ptr, align 8
  %13 = alloca ptr, align 8
  %14 = alloca i64, align 8
  %15 = alloca i32, align 4
  %16 = alloca ptr, align 8
  %17 = alloca i32, align 4
  store ptr %0, ptr %7, align 8, !tbaa !97
  store ptr %1, ptr %8, align 8, !tbaa !99
  store ptr %2, ptr %9, align 8, !tbaa !30
  store ptr %3, ptr %10, align 8, !tbaa !79
  store i64 %4, ptr %11, align 8, !tbaa !72
  call void @llvm.lifetime.start.p0(i64 8, ptr %12) #5
  store ptr null, ptr %12, align 8, !tbaa !77
  call void @llvm.lifetime.start.p0(i64 8, ptr %13) #5
  store ptr null, ptr %13, align 8, !tbaa !37
  call void @llvm.lifetime.start.p0(i64 8, ptr %14) #5
  call void @llvm.lifetime.start.p0(i64 4, ptr %15) #5
  store i32 -1, ptr %15, align 4, !tbaa !8
  call void @llvm.lifetime.start.p0(i64 8, ptr %16) #5
  %18 = load ptr, ptr %9, align 8, !tbaa !30
  %19 = getelementptr inbounds nuw %struct.pkcs7_recip_info_st, ptr %18, i32 0, i32 5
  %20 = load ptr, ptr %19, align 8, !tbaa !81
  store ptr %20, ptr %16, align 8, !tbaa !34
  %21 = load ptr, ptr %16, align 8, !tbaa !34
  %22 = call ptr @ossl_pkcs7_ctx_get0_libctx(ptr noundef %21)
  %23 = load ptr, ptr %10, align 8, !tbaa !79
  %24 = load ptr, ptr %16, align 8, !tbaa !34
  %25 = call ptr @ossl_pkcs7_ctx_get0_propq(ptr noundef %24)
  %26 = call ptr @EVP_PKEY_CTX_new_from_pkey(ptr noundef %22, ptr noundef %23, ptr noundef %25)
  store ptr %26, ptr %12, align 8, !tbaa !77
  %27 = load ptr, ptr %12, align 8, !tbaa !77
  %28 = icmp eq ptr %27, null
  br i1 %28, label %29, label %30

29:                                               ; preds = %5
  store i32 -1, ptr %6, align 4
  store i32 1, ptr %17, align 4
  br label %79

30:                                               ; preds = %5
  %31 = load ptr, ptr %12, align 8, !tbaa !77
  %32 = call i32 @EVP_PKEY_decrypt_init(ptr noundef %31)
  %33 = icmp sle i32 %32, 0
  br i1 %33, label %34, label %35

34:                                               ; preds = %30
  br label %71

35:                                               ; preds = %30
  %36 = load ptr, ptr %10, align 8, !tbaa !79
  %37 = call i32 @EVP_PKEY_is_a(ptr noundef %36, ptr noundef @.str.1)
  %38 = icmp ne i32 %37, 0
  br i1 %38, label %39, label %42

39:                                               ; preds = %35
  %40 = load ptr, ptr %12, align 8, !tbaa !77
  %41 = call i32 @EVP_PKEY_CTX_ctrl_str(ptr noundef %40, ptr noundef @.str.2, ptr noundef @.str.3)
  br label %42

42:                                               ; preds = %39, %35
  %43 = load ptr, ptr %12, align 8, !tbaa !77
  %44 = load i64, ptr %11, align 8, !tbaa !72
  %45 = load ptr, ptr %9, align 8, !tbaa !30
  %46 = getelementptr inbounds nuw %struct.pkcs7_recip_info_st, ptr %45, i32 0, i32 3
  %47 = load ptr, ptr %46, align 8, !tbaa !86
  %48 = getelementptr inbounds nuw %struct.asn1_string_st, ptr %47, i32 0, i32 2
  %49 = load ptr, ptr %48, align 8, !tbaa !70
  %50 = load ptr, ptr %9, align 8, !tbaa !30
  %51 = getelementptr inbounds nuw %struct.pkcs7_recip_info_st, ptr %50, i32 0, i32 3
  %52 = load ptr, ptr %51, align 8, !tbaa !86
  %53 = getelementptr inbounds nuw %struct.asn1_string_st, ptr %52, i32 0, i32 0
  %54 = load i32, ptr %53, align 8, !tbaa !68
  %55 = sext i32 %54 to i64
  %56 = call i32 @evp_pkey_decrypt_alloc(ptr noundef %43, ptr noundef %13, ptr noundef %14, i64 noundef %44, ptr noundef %49, i64 noundef %55)
  store i32 %56, ptr %15, align 4, !tbaa !8
  %57 = load i32, ptr %15, align 4, !tbaa !8
  %58 = icmp sle i32 %57, 0
  br i1 %58, label %59, label %60

59:                                               ; preds = %42
  br label %71

60:                                               ; preds = %42
  store i32 1, ptr %15, align 4, !tbaa !8
  %61 = load ptr, ptr %7, align 8, !tbaa !97
  %62 = load ptr, ptr %61, align 8, !tbaa !37
  %63 = load ptr, ptr %8, align 8, !tbaa !99
  %64 = load i32, ptr %63, align 4, !tbaa !8
  %65 = sext i32 %64 to i64
  call void @CRYPTO_clear_free(ptr noundef %62, i64 noundef %65, ptr noundef @.str, i32 noundef 222)
  %66 = load ptr, ptr %13, align 8, !tbaa !37
  %67 = load ptr, ptr %7, align 8, !tbaa !97
  store ptr %66, ptr %67, align 8, !tbaa !37
  %68 = load i64, ptr %14, align 8, !tbaa !72
  %69 = trunc i64 %68 to i32
  %70 = load ptr, ptr %8, align 8, !tbaa !99
  store i32 %69, ptr %70, align 4, !tbaa !8
  br label %71

71:                                               ; preds = %60, %59, %34
  %72 = load ptr, ptr %12, align 8, !tbaa !77
  call void @EVP_PKEY_CTX_free(ptr noundef %72)
  %73 = load i32, ptr %15, align 4, !tbaa !8
  %74 = icmp ne i32 %73, 0
  br i1 %74, label %77, label %75

75:                                               ; preds = %71
  %76 = load ptr, ptr %13, align 8, !tbaa !37
  call void @CRYPTO_free(ptr noundef %76, ptr noundef @.str, i32 noundef 229)
  br label %77

77:                                               ; preds = %75, %71
  %78 = load i32, ptr %15, align 4, !tbaa !8
  store i32 %78, ptr %6, align 4
  store i32 1, ptr %17, align 4
  br label %79

79:                                               ; preds = %77, %29
  call void @llvm.lifetime.end.p0(i64 8, ptr %16) #5
  call void @llvm.lifetime.end.p0(i64 4, ptr %15) #5
  call void @llvm.lifetime.end.p0(i64 8, ptr %14) #5
  call void @llvm.lifetime.end.p0(i64 8, ptr %13) #5
  call void @llvm.lifetime.end.p0(i64 8, ptr %12) #5
  %80 = load i32, ptr %6, align 4
  ret i32 %80
}