; Function Attrs: nounwind uwtable
define internal fastcc range(i32 -2147483648, 2) i32 @pkcs7_decrypt_rinfo(ptr noundef nonnull captures(none) %0, ptr noundef nonnull captures(none) %1, ptr noundef readonly captures(none) %2, ptr noundef %3, i64 noundef range(i64 -2147483648, 2147483648) %4) unnamed_addr #0 {
  %6 = alloca ptr, align 8
  %7 = alloca i64, align 8
  call void @llvm.lifetime.start.p0(i64 8, ptr nonnull %6) #4
  store ptr null, ptr %6, align 8, !tbaa !66
  call void @llvm.lifetime.start.p0(i64 8, ptr nonnull %7) #4
  %8 = getelementptr inbounds nuw i8, ptr %2, i64 40
  %9 = load ptr, ptr %8, align 8, !tbaa !54
  %10 = tail call ptr @ossl_pkcs7_ctx_get0_libctx(ptr noundef %9) #4
  %11 = tail call ptr @ossl_pkcs7_ctx_get0_propq(ptr noundef %9) #4
  %12 = tail call ptr @EVP_PKEY_CTX_new_from_pkey(ptr noundef %10, ptr noundef %3, ptr noundef %11) #4
  %13 = icmp eq ptr %12, null
  br i1 %13, label %40, label %14

14:                                               ; preds = %5
  %15 = tail call i32 @EVP_PKEY_decrypt_init(ptr noundef nonnull %12) #4
  %16 = icmp slt i32 %15, 1
  br i1 %16, label %.thread, label %17

17:                                               ; preds = %14
  %18 = tail call i32 @EVP_PKEY_is_a(ptr noundef %3, ptr noundef nonnull @.str.1) #4
  %.not = icmp eq i32 %18, 0
  br i1 %.not, label %21, label %19

19:                                               ; preds = %17
  %20 = tail call i32 @EVP_PKEY_CTX_ctrl_str(ptr noundef nonnull %12, ptr noundef nonnull @.str.2, ptr noundef nonnull @.str.3) #4
  br label %21

21:                                               ; preds = %19, %17
  %22 = getelementptr inbounds nuw i8, ptr %2, i64 24
  %23 = load ptr, ptr %22, align 8, !tbaa !60
  %24 = getelementptr inbounds nuw i8, ptr %23, i64 8
  %25 = load ptr, ptr %24, align 8, !tbaa !64
  %26 = load i32, ptr %23, align 8, !tbaa !62
  %27 = sext i32 %26 to i64
  %28 = call i32 @evp_pkey_decrypt_alloc(ptr noundef nonnull %12, ptr noundef nonnull %6, ptr noundef nonnull %7, i64 noundef %4, ptr noundef %25, i64 noundef %27) #4
  %29 = icmp slt i32 %28, 1
  br i1 %29, label %37, label %30

30:                                               ; preds = %21
  %31 = load ptr, ptr %0, align 8, !tbaa !66
  %32 = load i32, ptr %1, align 4, !tbaa !67
  %33 = sext i32 %32 to i64
  call void @CRYPTO_clear_free(ptr noundef %31, i64 noundef %33, ptr noundef nonnull @.str, i32 noundef 222) #4
  %34 = load ptr, ptr %6, align 8, !tbaa !66
  store ptr %34, ptr %0, align 8, !tbaa !66
  %35 = load i64, ptr %7, align 8, !tbaa !59
  %36 = trunc i64 %35 to i32
  store i32 %36, ptr %1, align 4, !tbaa !67
  br label %.thread

.thread:                                          ; preds = %14, %30
  %.020.ph = phi i32 [ 1, %30 ], [ -1, %14 ]
  call void @EVP_PKEY_CTX_free(ptr noundef nonnull %12) #4
  br label %40

37:                                               ; preds = %21
  call void @EVP_PKEY_CTX_free(ptr noundef nonnull %12) #4
  %.not23 = icmp eq i32 %28, 0
  br i1 %.not23, label %38, label %40

38:                                               ; preds = %37
  %39 = load ptr, ptr %6, align 8, !tbaa !66
  call void @CRYPTO_free(ptr noundef %39, ptr noundef nonnull @.str, i32 noundef 229) #4
  br label %40

40:                                               ; preds = %.thread, %37, %38, %5
  %.0 = phi i32 [ -1, %5 ], [ 0, %38 ], [ %28, %37 ], [ %.020.ph, %.thread ]
  call void @llvm.lifetime.end.p0(i64 8, ptr nonnull %7) #4
  call void @llvm.lifetime.end.p0(i64 8, ptr nonnull %6) #4
  ret i32 %.0
}